target datalayout = "e-m:e-p270:32:32-p271:32:32-p272:64:64-i64:64-i128:128-f80:128-n8:16:32:64-S128"
target triple = "x86_64-pc-linux-gnu"

@local_repo_env = external constant [0 x ptr], align 8
@.str.26 = private unnamed_addr constant [22 x i8] c"GIT_CONFIG_PARAMETERS\00", align 1
@.str.27 = private unnamed_addr constant [17 x i8] c"GIT_CONFIG_COUNT\00", align 1
@.str.28 = private unnamed_addr constant [6 x i8] c"%s=%s\00", align 1
@.str.29 = private unnamed_addr constant [8 x i8] c"GIT_DIR\00", align 1

; Function Attrs: nounwind uwtable
define dso_local void @prepare_other_repo_env(ptr noundef %0, ptr noundef %1) #0 {
  %3 = alloca ptr, align 8
  %4 = alloca ptr, align 8
  %5 = alloca ptr, align 8
  store ptr %0, ptr %3, align 8, !tbaa !56
  store ptr %1, ptr %4, align 8, !tbaa !9
  call void @llvm.lifetime.start.p0(i64 8, ptr %5) #13
  store ptr @local_repo_env, ptr %5, align 8, !tbaa !20
  br label %6

6:                                                ; preds = %26, %2
  %7 = load ptr, ptr %5, align 8, !tbaa !20
  %8 = load ptr, ptr %7, align 8, !tbaa !9
  %9 = icmp ne ptr %8, null
  br i1 %9, label %10, label %29

10:                                               ; preds = %6
  %11 = load ptr, ptr %5, align 8, !tbaa !20
  %12 = load ptr, ptr %11, align 8, !tbaa !9
  %13 = call i32 @strcmp(ptr noundef %12, ptr noundef @.str.26) #14
  %14 = icmp ne i32 %13, 0
  br i1 %14, label %15, label %25

15:                                               ; preds = %10
  %16 = load ptr, ptr %5, align 8, !tbaa !20
  %17 = load ptr, ptr %16, align 8, !tbaa !9
  %18 = call i32 @strcmp(ptr noundef %17, ptr noundef @.str.27) #14
  %19 = icmp ne i32 %18, 0
  br i1 %19, label %20, label %25

20:                                               ; preds = %15
  %21 = load ptr, ptr %3, align 8, !tbaa !56
  %22 = load ptr, ptr %5, align 8, !tbaa !20
  %23 = load ptr, ptr %22, align 8, !tbaa !9
  %24 = call ptr @strvec_push(ptr noundef %21, ptr noundef %23)
  br label %25

25:                                               ; preds = %20, %15, %10
  br label %26

26:                                               ; preds = %25
  %27 = load ptr, ptr %5, align 8, !tbaa !20
  %28 = getelementptr inbounds nuw ptr, ptr %27, i32 1
  store ptr %28, ptr %5, align 8, !tbaa !20
  br label %6, !llvm.loop !162

29:                                               ; preds = %6
  %30 = load ptr, ptr %3, align 8, !tbaa !56
  %31 = load ptr, ptr %4, align 8, !tbaa !9
  %32 = call ptr (ptr, ptr, ...) @strvec_pushf(ptr noundef %30, ptr noundef @.str.28, ptr noundef @.str.29, ptr noundef %31)
  call void @llvm.lifetime.end.p0(i64 8, ptr %5) #13
  ret void
}