; Function Attrs: nounwind uwtable
define dso_local void @prepare_other_repo_env(ptr noundef %0, ptr noundef %1) local_unnamed_addr #3 {
  %3 = load ptr, ptr @local_repo_env, align 8, !tbaa !26
  %.not11 = icmp eq ptr %3, null
  br i1 %.not11, label %._crit_edge, label %.lr.ph

.lr.ph:                                           ; preds = %2, %10
  %4 = phi ptr [ %12, %10 ], [ %3, %2 ]
  %.012 = phi ptr [ %11, %10 ], [ @local_repo_env, %2 ]
  %5 = tail call i32 @strcmp(ptr noundef nonnull dereferenceable(1) %4, ptr noundef nonnull dereferenceable(22) @.str.26) #22
  %.not9 = icmp eq i32 %5, 0
  br i1 %.not9, label %10, label %6

6:                                                ; preds = %.lr.ph
  %7 = tail call i32 @strcmp(ptr noundef nonnull dereferenceable(1) %4, ptr noundef nonnull dereferenceable(17) @.str.27) #22
  %.not10 = icmp eq i32 %7, 0
  br i1 %.not10, label %10, label %8

8:                                                ; preds = %6
  %9 = tail call ptr @strvec_push(ptr noundef %0, ptr noundef nonnull %4) #21
  br label %10

10:                                               ; preds = %.lr.ph, %6, %8
  %11 = getelementptr inbounds nuw i8, ptr %.012, i64 8
  %12 = load ptr, ptr %11, align 8, !tbaa !26
  %.not = icmp eq ptr %12, null
  br i1 %.not, label %._crit_edge, label %.lr.ph, !llvm.loop !146

._crit_edge:                                      ; preds = %10, %2
  %13 = tail call ptr (ptr, ptr, ...) @strvec_pushf(ptr noundef %0, ptr noundef nonnull @.str.28, ptr noundef nonnull @.str.29, ptr noundef %1) #21
  ret void
}